target datalayout = "e-m:e-p270:32:32-p271:32:32-p272:64:64-i64:64-i128:128-f80:128-n8:16:32:64-S128"
target triple = "x86_64-pc-linux-gnu"

@.str.75 = private unnamed_addr constant [3 x i8] c"gl\00", align 1

; Function Attrs: nounwind uwtable
define i32 @prte_hwloc_base_topology_set_flags(ptr noundef %0, i64 noundef %1, i1 noundef zeroext %2) #0 {
  %4 = alloca i32, align 4
  %5 = alloca ptr, align 8
  %6 = alloca i64, align 8
  %7 = alloca i8, align 1
  %8 = alloca i32, align 4
  %9 = alloca i32, align 4
  store ptr %0, ptr %5, align 8, !tbaa !3
  store i64 %1, ptr %6, align 8, !tbaa !66
  %10 = zext i1 %2 to i8
  store i8 %10, ptr %7, align 1, !tbaa !20
  %11 = load i8, ptr %7, align 1, !tbaa !20, !range !22, !noundef !23
  %12 = trunc i8 %11 to i1
  br i1 %12, label %13, label %24

13:                                               ; preds = %3
  call void @llvm.lifetime.start.p0(i64 4, ptr %8) #10
  %14 = load ptr, ptr %5, align 8, !tbaa !3
  %15 = call i32 @hwloc_topology_set_io_types_filter(ptr noundef %14, i32 noundef 3)
  store i32 %15, ptr %8, align 4, !tbaa !19
  %16 = load i32, ptr %8, align 4, !tbaa !19
  %17 = icmp ne i32 0, %16
  br i1 %17, label %18, label %20

18:                                               ; preds = %13
  %19 = load i32, ptr %8, align 4, !tbaa !19
  store i32 %19, ptr %4, align 4
  store i32 1, ptr %9, align 4
  br label %21

20:                                               ; preds = %13
  store i32 0, ptr %9, align 4
  br label %21

21:                                               ; preds = %20, %18
  call void @llvm.lifetime.end.p0(i64 4, ptr %8) #10
  %22 = load i32, ptr %9, align 4
  switch i32 %22, label %32 [
    i32 0, label %23
    i32 1, label %30
  ]

23:                                               ; preds = %21
  br label %24

24:                                               ; preds = %23, %3
  %25 = load ptr, ptr %5, align 8, !tbaa !3
  %26 = call i32 @hwloc_topology_set_components(ptr noundef %25, i64 noundef 1, ptr noundef @.str.75)
  %27 = load ptr, ptr %5, align 8, !tbaa !3
  %28 = load i64, ptr %6, align 8, !tbaa !66
  %29 = call i32 @hwloc_topology_set_flags(ptr noundef %27, i64 noundef %28)
  store i32 %29, ptr %4, align 4
  br label %30

30:                                               ; preds = %24, %21
  %31 = load i32, ptr %4, align 4
  ret i32 %31

32:                                               ; preds = %21
  unreachable
}