; Function Attrs: nounwind uwtable
define i32 @prte_hwloc_base_topology_set_flags(ptr noundef %0, i64 noundef %1, i1 noundef zeroext %2) local_unnamed_addr #0 {
  br i1 %2, label %4, label %6

4:                                                ; preds = %3
  %5 = tail call i32 @hwloc_topology_set_io_types_filter(ptr noundef %0, i32 noundef 3) #18
  %.not.not = icmp eq i32 %5, 0
  br i1 %.not.not, label %6, label %9

6:                                                ; preds = %4, %3
  %7 = tail call i32 @hwloc_topology_set_components(ptr noundef %0, i64 noundef 1, ptr noundef nonnull @.str.75) #18
  %8 = tail call i32 @hwloc_topology_set_flags(ptr noundef %0, i64 noundef %1) #18
  br label %9

9:                                                ; preds = %4, %6
  %.1 = phi i32 [ %5, %4 ], [ %8, %6 ]
  ret i32 %.1
}